; Function Attrs: nounwind uwtable
define internal range(i32 0, 2) i32 @shake_get_ctx_params(ptr noundef readonly captures(address_is_null) %0, ptr noundef %1) #0 {
  %3 = icmp eq ptr %0, null
  br i1 %3, label %ossl_param_is_empty.exit.thread, label %4

4:                                                ; preds = %2
  %5 = icmp eq ptr %1, null
  br i1 %5, label %ossl_param_is_empty.exit.thread, label %ossl_param_is_empty.exit

ossl_param_is_empty.exit:                         ; preds = %4
  %6 = load ptr, ptr %1, align 8, !tbaa !22
  %.not = icmp eq ptr %6, null
  br i1 %.not, label %ossl_param_is_empty.exit.thread, label %7

7:                                                ; preds = %ossl_param_is_empty.exit
  %8 = tail call ptr @OSSL_PARAM_locate(ptr noundef nonnull %1, ptr noundef nonnull @.str.1) #5
  %.not14 = icmp eq ptr %8, null
  br i1 %.not14, label %13, label %9

9:                                                ; preds = %7
  %10 = getelementptr inbounds nuw i8, ptr %0, i64 376
  %11 = load i64, ptr %10, align 8, !tbaa !15
  %12 = tail call i32 @OSSL_PARAM_set_size_t(ptr noundef nonnull %8, i64 noundef %11) #5
  %.not15 = icmp eq i32 %12, 0
  br i1 %.not15, label %ossl_param_is_empty.exit.thread.sink.split, label %13

13:                                               ; preds = %9, %7
  %14 = tail call ptr @OSSL_PARAM_locate(ptr noundef nonnull %1, ptr noundef nonnull @.str.2) #5
  %.not16 = icmp eq ptr %14, null
  br i1 %.not16, label %ossl_param_is_empty.exit.thread, label %15

15:                                               ; preds = %13
  %16 = getelementptr inbounds nuw i8, ptr %0, i64 376
  %17 = load i64, ptr %16, align 8, !tbaa !15
  %18 = tail call i32 @OSSL_PARAM_set_size_t(ptr noundef nonnull %14, i64 noundef %17) #5
  %.not17 = icmp eq i32 %18, 0
  br i1 %.not17, label %ossl_param_is_empty.exit.thread.sink.split, label %ossl_param_is_empty.exit.thread

ossl_param_is_empty.exit.thread.sink.split:       ; preds = %15, %9
  %.sink = phi i32 [ 607, %9 ], [ 613, %15 ]
  tail call void @ERR_new() #5
  tail call void @ERR_set_debug(ptr noundef nonnull @.str, i32 noundef %.sink, ptr noundef nonnull @__func__.shake_get_ctx_params) #5
  tail call void (i32, i32, ptr, ...) @ERR_set_error(i32 noundef 57, i32 noundef 103, ptr noundef null) #5
  br label %ossl_param_is_empty.exit.thread

ossl_param_is_empty.exit.thread:                  ; preds = %ossl_param_is_empty.exit.thread.sink.split, %4, %13, %15, %ossl_param_is_empty.exit, %2
  %.0 = phi i32 [ 0, %2 ], [ 1, %ossl_param_is_empty.exit ], [ 1, %15 ], [ 1, %13 ], [ 1, %4 ], [ 0, %ossl_param_is_empty.exit.thread.sink.split ]
  ret i32 %.0
}